; Function Attrs: nofree nosync nounwind memory(readwrite, inaccessiblemem: none) uwtable
define i32 @Gia_ManQuantCountUsed_rec(ptr noundef readonly captures(none) %0, i32 noundef %1) local_unnamed_addr #0 {
  %3 = getelementptr i8, ptr %0, i64 176
  %4 = getelementptr i8, ptr %0, i64 616
  %.val41 = load i32, ptr %3, align 8, !tbaa !3
  %.val2842 = load ptr, ptr %4, align 8, !tbaa !28
  %5 = sext i32 %1 to i64
  %6 = getelementptr inbounds i32, ptr %.val2842, i64 %5
  %7 = load i32, ptr %6, align 4, !tbaa !29
  %.not43 = icmp eq i32 %7, %.val41
  br i1 %.not43, label %._crit_edge, label %.lr.ph

.lr.ph:                                           ; preds = %2
  %8 = getelementptr i8, ptr %0, i64 32
  %9 = getelementptr inbounds nuw i8, ptr %0, i64 976
  %10 = getelementptr i8, ptr %0, i64 980
  %11 = getelementptr i8, ptr %0, i64 984
  br label %12

12:                                               ; preds = %.lr.ph, %tailrecurse
  %13 = phi ptr [ %6, %.lr.ph ], [ %50, %tailrecurse ]
  %14 = phi i64 [ %5, %.lr.ph ], [ %49, %tailrecurse ]
  %.val46 = phi i32 [ %.val41, %.lr.ph ], [ %.val, %tailrecurse ]
  %.tr4045 = phi i32 [ %1, %.lr.ph ], [ %41, %tailrecurse ]
  %accumulator.tr44 = phi i32 [ 0, %.lr.ph ], [ %48, %tailrecurse ]
  store i32 %.val46, ptr %13, align 4, !tbaa !29
  %.val31 = load ptr, ptr %8, align 8, !tbaa !30
  %15 = getelementptr inbounds %struct.Gia_Obj_t_, ptr %.val31, i64 %14
  %.val32 = load i64, ptr %15, align 4
  %16 = and i64 %.val32, 2684354559
  %narrow.i.not = icmp eq i64 %16, 2684354559
  br i1 %narrow.i.not, label %._crit_edge.loopexit, label %17

17:                                               ; preds = %12
  %18 = trunc i64 %.val32 to i32
  %19 = and i32 %18, 536870911
  %20 = sub nsw i32 %.tr4045, %19
  %21 = load i32, ptr %9, align 8, !tbaa !41
  %.val.i = load i32, ptr %10, align 4, !tbaa !31
  %.val2.i = load ptr, ptr %11, align 8, !tbaa !32
  %22 = getelementptr i8, ptr %.val2.i, i64 8
  %.val2.val.i = load ptr, ptr %22, align 8, !tbaa !33
  %23 = mul nsw i32 %.val.i, %20
  %24 = sext i32 %23 to i64
  %25 = getelementptr inbounds i64, ptr %.val2.val.i, i64 %24
  %26 = ashr i32 %21, 6
  %27 = sext i32 %26 to i64
  %28 = getelementptr inbounds i64, ptr %25, i64 %27
  %29 = load i64, ptr %28, align 8, !tbaa !38
  %30 = and i32 %21, 63
  %31 = zext nneg i32 %30 to i64
  %32 = shl nuw i64 1, %31
  %33 = and i64 %29, %32
  %.not26 = icmp eq i64 %33, 0
  br i1 %.not26, label %37, label %34

34:                                               ; preds = %17
  %35 = tail call i32 @Gia_ManQuantCountUsed_rec(ptr noundef nonnull %0, i32 noundef %20)
  %36 = add nsw i32 %35, 1
  %.val36.pre = load i64, ptr %15, align 4
  %.pre = load i32, ptr %9, align 8, !tbaa !41
  %.val.i37.pre = load i32, ptr %10, align 4, !tbaa !31
  %.val2.i38.pre = load ptr, ptr %11, align 8, !tbaa !32
  %.phi.trans.insert = getelementptr i8, ptr %.val2.i38.pre, i64 8
  %.val2.val.i39.pre = load ptr, ptr %.phi.trans.insert, align 8, !tbaa !33
  %.pre57 = ashr i32 %.pre, 6
  %.pre58 = sext i32 %.pre57 to i64
  %.pre60 = and i32 %.pre, 63
  %.pre62 = zext nneg i32 %.pre60 to i64
  %.pre64 = shl nuw i64 1, %.pre62
  br label %37

37:                                               ; preds = %34, %17
  %.pre-phi65 = phi i64 [ %.pre64, %34 ], [ %32, %17 ]
  %.pre-phi59 = phi i64 [ %.pre58, %34 ], [ %27, %17 ]
  %.val2.val.i39 = phi ptr [ %.val2.val.i39.pre, %34 ], [ %.val2.val.i, %17 ]
  %.val.i37 = phi i32 [ %.val.i37.pre, %34 ], [ %.val.i, %17 ]
  %.val36 = phi i64 [ %.val36.pre, %34 ], [ %.val32, %17 ]
  %.0 = phi i32 [ %36, %34 ], [ 1, %17 ]
  %38 = lshr i64 %.val36, 32
  %39 = trunc nuw i64 %38 to i32
  %40 = and i32 %39, 536870911
  %41 = sub nsw i32 %.tr4045, %40
  %42 = mul nsw i32 %41, %.val.i37
  %43 = sext i32 %42 to i64
  %44 = getelementptr inbounds i64, ptr %.val2.val.i39, i64 %43
  %45 = getelementptr inbounds i64, ptr %44, i64 %.pre-phi59
  %46 = load i64, ptr %45, align 8, !tbaa !38
  %47 = and i64 %46, %.pre-phi65
  %.not27 = icmp eq i64 %47, 0
  br i1 %.not27, label %._crit_edge.loopexit, label %tailrecurse

tailrecurse:                                      ; preds = %37
  %48 = add nsw i32 %.0, %accumulator.tr44
  %.val = load i32, ptr %3, align 8, !tbaa !3
  %.val28 = load ptr, ptr %4, align 8, !tbaa !28
  %49 = sext i32 %41 to i64
  %50 = getelementptr inbounds i32, ptr %.val28, i64 %49
  %51 = load i32, ptr %50, align 4, !tbaa !29
  %.not = icmp eq i32 %51, %.val
  br i1 %.not, label %._crit_edge.loopexit, label %12

._crit_edge.loopexit:                             ; preds = %37, %12, %tailrecurse
  %accumulator.tr.lcssa.ph = phi i32 [ %48, %tailrecurse ], [ %accumulator.tr44, %12 ], [ %accumulator.tr44, %37 ]
  %.024.ph = phi i32 [ 0, %tailrecurse ], [ 0, %12 ], [ %.0, %37 ]
  %52 = add nsw i32 %.024.ph, %accumulator.tr.lcssa.ph
  br label %._crit_edge

._crit_edge:                                      ; preds = %._crit_edge.loopexit, %2
  %accumulator.ret.tr = phi i32 [ 0, %2 ], [ %52, %._crit_edge.loopexit ]
  ret i32 %accumulator.ret.tr
}